; Function Attrs: mustprogress nounwind uwtable
define hidden void @_ZN7oopDesc6verifyEPS_(ptr noundef %0) local_unnamed_addr #0 align 2 {
  %2 = load ptr, ptr @tty, align 8
  %.not.i = icmp eq ptr %0, null
  br i1 %.not.i, label %_ZN7oopDesc9verify_onEP12outputStreamPS_.exit, label %3

3:                                                ; preds = %1
  %4 = load i8, ptr @UseCompressedClassPointers, align 1
  %5 = trunc i8 %4 to i1
  %6 = getelementptr inbounds i8, ptr %0, i64 8
  br i1 %5, label %7, label %17

7:                                                ; preds = %3
  %8 = load i32, ptr %6, align 8
  %9 = load ptr, ptr @_ZN23CompressedKlassPointers5_baseE, align 8
  %10 = load i32, ptr @_ZN23CompressedKlassPointers6_shiftE, align 4
  %11 = ptrtoint ptr %9 to i64
  %12 = zext i32 %8 to i64
  %13 = zext nneg i32 %10 to i64
  %14 = shl i64 %12, %13
  %15 = add i64 %14, %11
  %16 = inttoptr i64 %15 to ptr
  br label %_ZNK7oopDesc5klassEv.exit.i

17:                                               ; preds = %3
  %18 = load ptr, ptr %6, align 8
  br label %_ZNK7oopDesc5klassEv.exit.i

_ZNK7oopDesc5klassEv.exit.i:                      ; preds = %17, %7
  %.0.i.i = phi ptr [ %16, %7 ], [ %18, %17 ]
  %19 = load ptr, ptr %.0.i.i, align 8
  %20 = getelementptr inbounds i8, ptr %19, i64 320
  %21 = load ptr, ptr %20, align 8
  tail call void %21(ptr noundef nonnull align 8 dereferenceable(196) %.0.i.i, ptr noundef nonnull %0, ptr noundef %2) #11
  br label %_ZN7oopDesc9verify_onEP12outputStreamPS_.exit

_ZN7oopDesc9verify_onEP12outputStreamPS_.exit:    ; preds = %1, %_ZNK7oopDesc5klassEv.exit.i
  ret void
}